	.section	__TEXT,__text,regular,pure_instructions
	.macosx_version_min 10, 7
	.file	1 "/Users/jakrillis/projects" "builds/macosx-sdks/MacOSX10.7.sdk/usr/include/c++/4.2.1/bits/ios_base.h"
	.file	2 "/Users/jakrillis/projects" "builds/macosx-sdks/MacOSX10.7.sdk/usr/include/i386/_types.h"
	.file	3 "/Users/jakrillis/projects" "builds/macosx-sdks/MacOSX10.7.sdk/usr/include/stddef.h"
	.file	4 "/Users/jakrillis/projects" "builds/macosx-sdks/MacOSX10.7.sdk/usr/include/c++/4.2.1/bits/postypes.h"
	.file	5 "/Users/jakrillis/projects" "builds/macosx-sdks/MacOSX10.7.sdk/usr/include/c++/4.2.1/bits/atomic_word.h"
	.file	6 "/Users/jakrillis/projects" "builds/macosx-sdks/MacOSX10.7.sdk/usr/include/c++/4.2.1/bits/locale_classes.h"
	.file	7 "/Users/jakrillis/projects" "builds/macosx-sdks/MacOSX10.7.sdk/usr/include/c++/4.2.1/bits/c++locale.h"
	.file	8 "/Users/jakrillis/projects" "builds/macosx-sdks/MacOSX10.7.sdk/usr/include/sys/_types.h"
	.file	9 "/Users/jakrillis/projects" "builds/macosx-sdks/MacOSX10.7.sdk/usr/include/pthread.h"
	.file	10 "/Users/jakrillis/projects" "builds/macosx-sdks/MacOSX10.7.sdk/usr/include/c++/4.2.1/bits/gthr-default.h"
	.file	11 "/Users/jakrillis/projects" "builds/macosx-sdks/MacOSX10.7.sdk/usr/include/unistd.h"
	.file	12 "/Users/jakrillis/projects" "builds/macosx-sdks/MacOSX10.7.sdk/usr/include/c++/4.2.1/ext/new_allocator.h"
	.file	13 "/Users/jakrillis/projects" "builds/macosx-sdks/MacOSX10.7.sdk/usr/include/c++/4.2.1/bits/allocator.h"
	.file	14 "/Users/jakrillis/projects" "builds/macosx-sdks/MacOSX10.7.sdk/usr/include/c++/4.2.1/bits/basic_string.h"
	.file	15 "/Users/jakrillis/projects" "builds/macosx-sdks/MacOSX10.7.sdk/usr/include/c++/4.2.1/bits/stl_iterator.h"
	.file	16 "/Users/jakrillis/projects" "builds/macosx-sdks/MacOSX10.7.sdk/usr/include/c++/4.2.1/bits/stl_iterator_base_types.h"
	.file	17 "/Users/jakrillis/projects" "builds/macosx-sdks/MacOSX10.7.sdk/usr/include/c++/4.2.1/bits/char_traits.h"
	.file	18 "/Users/jakrillis/projects" "builds/macosx-sdks/MacOSX10.7.sdk/usr/include/c++/4.2.1/bits/basic_string.tcc"
	.file	19 "/Users/jakrillis/projects" "builds/macosx-sdks/MacOSX10.7.sdk/usr/include/c++/4.2.1/bits/stringfwd.h"
	.file	20 "/Users/jakrillis/projects" "builds/macosx-sdks/MacOSX10.7.sdk/usr/include/c++/4.2.1/iostream"
	.file	21 "/Users/jakrillis/projects/gdmods/cacaodump" "Cacao/include/cocos2dx/cocoa/CCGeometry.h"
	.file	22 "/Users/jakrillis/projects/gdmods/cacaodump" "Cacao/include/cocos2dext/CocoStudio/GUI/System/../BaseClasses/../Layouts/UILayoutDefine.h"
	.file	23 "/Users/jakrillis/projects/gdmods/cacaodump" "Cacao/include/GDML/GDML.hpp"
	.file	24 "/Users/jakrillis/projects" "builds/macosx-sdks/MacOSX10.7.sdk/usr/include/c++/4.2.1/bits/stl_vector.h"
	.file	25 "/Users/jakrillis/projects/gdmods/cacaodump" "temp.cpp"
	.file	26 "/Users/jakrillis/projects/gdmods/cacaodump" "Cacao/include/cocos2dx/cocoa/CCObject.h"
	.file	27 "/Users/jakrillis/projects/gdmods/cacaodump" "Cacao/include/cocos2dx/cocoa/CCZone.h"
	.file	28 "/Users/jakrillis/projects/gdmods/cacaodump" "Cacao/include/cocos2dx/cocoa/CCDataVisitor.h"
	.file	29 "/Users/jakrillis/projects/gdmods/cacaodump" "Cacao/include/cocos2dx/cocoa/CCBool.h"
	.file	30 "/Users/jakrillis/projects/gdmods/cacaodump" "Cacao/include/cocos2dx/cocoa/CCInteger.h"
	.file	31 "/Users/jakrillis/projects/gdmods/cacaodump" "Cacao/include/cocos2dx/cocoa/CCFloat.h"
	.file	32 "/Users/jakrillis/projects/gdmods/cacaodump" "Cacao/include/cocos2dx/cocoa/CCDouble.h"
	.file	33 "/Users/jakrillis/projects/gdmods/cacaodump" "Cacao/include/cocos2dx/cocoa/CCString.h"
	.file	34 "/Users/jakrillis/projects/gdmods/cacaodump" "Cacao/include/cocos2dx/support/data_support/ccCArray.h"
	.file	35 "/Users/jakrillis/projects/gdmods/cacaodump" "Cacao/include/cocos2dx/cocoa/CCArray.h"
	.file	36 "/Users/jakrillis/projects" "builds/macosx-sdks/MacOSX10.7.sdk/usr/include/c++/4.2.1/bits/stl_tree.h"
	.file	37 "/Users/jakrillis/projects" "builds/macosx-sdks/MacOSX10.7.sdk/usr/include/c++/4.2.1/bits/stl_function.h"
	.file	38 "/Users/jakrillis/projects" "builds/macosx-sdks/MacOSX10.7.sdk/usr/include/c++/4.2.1/bits/stl_set.h"
	.file	39 "/Users/jakrillis/projects/gdmods/cacaodump" "Cacao/include/cocos2dx/cocoa/CCSet.h"
	.file	40 "/Users/jakrillis/projects/gdmods/cacaodump" "Cacao/include/cocos2dx/cocoa/CCDictionary.h"
	.file	41 "/Users/jakrillis/projects/gdmods/cacaodump" "Cacao/include/cocos2dx/support/data_support/uthash.h"
	.file	42 "/Users/jakrillis/projects" "builds/macosx-sdks/MacOSX10.7.sdk/usr/include/stdint.h"
	.file	43 "/Users/jakrillis/projects/gdmods/cacaodump" "Cacao/include/cocos2dx/textures/CCTexture2D.h"
	.file	44 "/Users/jakrillis/projects/gdmods/cacaodump" "Cacao/include/cocos2dx/platform/CCImage.h"
	.file	45 "/Users/jakrillis/projects/gdmods/cacaodump" "Cacao/include/cocos2dx/include/ccTypes.h"
	.file	46 "/Users/jakrillis/projects/gdmods/cacaodump" "Cacao/include/cocos2dx/CCDirector.h"
	.file	47 "/Users/jakrillis/projects/gdmods/cacaodump" "Cacao/include/cocos2dx/shaders/ccGLStateCache.h"
	.file	48 "/Users/jakrillis/projects/gdmods/cacaodump" "Cacao/include/cocos2dx/script_support/CCScriptSupport.h"
	.file	49 "/Users/jakrillis/projects/gdmods/cacaodump" "Cacao/include/cocos2dx/custom/Delegates/CCKeyboardDelegate.h"
	.file	50 "/Users/jakrillis/projects/gdmods/cacaodump" "Cacao/include/cocos2dx/layers_scenes_transitions_nodes/CCLayer.h"
	.file	51 "/Users/jakrillis/projects" "builds/macosx-sdks/MacOSX10.7.sdk/usr/include/_locale.h"
	.file	52 "/Users/jakrillis/projects" "builds/macosx-sdks/MacOSX10.7.sdk/usr/include/c++/4.2.1/clocale"
	.file	53 "/Users/jakrillis/projects" "builds/macosx-sdks/MacOSX10.7.sdk/usr/include/locale.h"
	.file	54 "/Users/jakrillis/projects" "builds/macosx-sdks/MacOSX10.7.sdk/usr/include/c++/4.2.1/cstddef"
	.file	55 "/Users/jakrillis/projects" "builds/macosx-sdks/MacOSX10.7.sdk/usr/include/string.h"
	.file	56 "/Users/jakrillis/projects" "builds/macosx-sdks/MacOSX10.7.sdk/usr/include/c++/4.2.1/cstring"
	.file	57 "/Users/jakrillis/projects" "builds/macosx-sdks/MacOSX10.7.sdk/usr/include/stdio.h"
	.file	58 "/Users/jakrillis/projects" "builds/macosx-sdks/MacOSX10.7.sdk/usr/include/c++/4.2.1/cstdio"
	.file	59 "/Users/jakrillis/projects" "builds/macosx-sdks/MacOSX10.7.sdk/usr/include/c++/4.2.1/cstdarg"
	.file	60 "/Users/jakrillis/projects" "builds/macosx-sdks/MacOSX10.7.sdk/usr/include/ctype.h"
	.file	61 "/Users/jakrillis/projects" "builds/macosx-sdks/MacOSX10.7.sdk/usr/include/c++/4.2.1/cctype"
	.file	62 "/Users/jakrillis/projects" "builds/macosx-sdks/MacOSX10.7.sdk/usr/include/time.h"
	.file	63 "/Users/jakrillis/projects" "builds/macosx-sdks/MacOSX10.7.sdk/usr/include/c++/4.2.1/ctime"
	.file	64 "/Users/jakrillis/projects" "builds/macosx-sdks/MacOSX10.7.sdk/usr/include/sys/select.h"
	.file	65 "/Users/jakrillis/projects" "builds/macosx-sdks/MacOSX10.7.sdk/usr/include/wchar.h"
	.file	66 "/Users/jakrillis/projects" "builds/macosx-sdks/MacOSX10.7.sdk/usr/include/c++/4.2.1/cwchar"
	.file	67 "/Users/jakrillis/projects" "builds/macosx-sdks/MacOSX10.7.sdk/usr/include/stdlib.h"
	.file	68 "/Users/jakrillis/projects" "builds/macosx-sdks/MacOSX10.7.sdk/usr/include/c++/4.2.1/cstdlib"
	.file	69 "/Users/jakrillis/projects" "builds/macosx-sdks/MacOSX10.7.sdk/usr/include/c++/4.2.1/debug/debug.h"
	.file	70 "/Users/jakrillis/projects" "builds/macosx-sdks/MacOSX10.7.sdk/usr/include/c++/4.2.1/cwctype"
	.file	71 "/Users/jakrillis/projects" "builds/macosx-sdks/MacOSX10.7.sdk/usr/include/_types.h"
	.file	72 "/Users/jakrillis/projects" "builds/macosx-sdks/MacOSX10.7.sdk/usr/include/_wctype.h"
	.file	73 "/Users/jakrillis/projects" "builds/macosx-sdks/MacOSX10.7.sdk/usr/include/wctype.h"
	.file	74 "/Users/jakrillis/projects/gdmods/cacaodump" "Cacao/include/cocos2dext/CocoStudio/GUI/System/../BaseClasses/../Layouts/../BaseClasses/UIWidget.h"
	.section	__TEXT,__StaticInit,regular,pure_instructions
	.p2align	4, 0x90         ## -- Begin function __cxx_global_var_init
___cxx_global_var_init:                 ## @__cxx_global_var_init
Lfunc_begin0:
	.loc	20 77 0                 ## builds/macosx-sdks/MacOSX10.7.sdk/usr/include/c++/4.2.1/iostream:77:0
	.cfi_startproc
## %bb.0:
	pushq	%rbp
	.cfi_def_cfa_offset 16
	.cfi_offset %rbp, -16
	movq	%rsp, %rbp
	.cfi_def_cfa_register %rbp
	subq	$16, %rsp
Ltmp0:
	.loc	20 77 25 prologue_end   ## builds/macosx-sdks/MacOSX10.7.sdk/usr/include/c++/4.2.1/iostream:77:25
	leaq	__ZStL8__ioinit(%rip), %rdi
	callq	__ZNSt8ios_base4InitC1Ev
	movq	__ZNSt8ios_base4InitD1Ev@GOTPCREL(%rip), %rdi
	leaq	__ZStL8__ioinit(%rip), %rsi
	leaq	___dso_handle(%rip), %rdx
	callq	___cxa_atexit
	movl	%eax, -4(%rbp)          ## 4-byte Spill
	addq	$16, %rsp
	popq	%rbp
	retq
Ltmp1:
Lfunc_end0:
	.cfi_endproc
                                        ## -- End function
	.p2align	4, 0x90         ## -- Begin function __cxx_global_var_init.1
___cxx_global_var_init.1:               ## @__cxx_global_var_init.1
Lfunc_begin1:
	.loc	21 334 0                ## Cacao/include/cocos2dx/cocoa/CCGeometry.h:334:0
	.cfi_startproc
## %bb.0:
	pushq	%rbp
	.cfi_def_cfa_offset 16
	.cfi_offset %rbp, -16
	movq	%rsp, %rbp
	.cfi_def_cfa_register %rbp
	subq	$16, %rsp
Ltmp2:
	.loc	21 334 29 prologue_end  ## Cacao/include/cocos2dx/cocoa/CCGeometry.h:334:29
	leaq	__ZN7cocos2dL11CCPointZeroE(%rip), %rdi
	xorps	%xmm0, %xmm0
	movss	%xmm0, -4(%rbp)         ## 4-byte Spill
	movss	-4(%rbp), %xmm1         ## 4-byte Reload
                                        ## xmm1 = mem[0],zero,zero,zero
	callq	__ZN7cocos2d7CCPointC1Eff
	addq	$16, %rsp
	popq	%rbp
	retq
Ltmp3:
Lfunc_end1:
	.cfi_endproc
                                        ## -- End function
	.p2align	4, 0x90         ## -- Begin function __cxx_global_var_init.2
___cxx_global_var_init.2:               ## @__cxx_global_var_init.2
Lfunc_begin2:
	.loc	21 337 0                ## Cacao/include/cocos2dx/cocoa/CCGeometry.h:337:0
	.cfi_startproc
## %bb.0:
	pushq	%rbp
	.cfi_def_cfa_offset 16
	.cfi_offset %rbp, -16
	movq	%rsp, %rbp
	.cfi_def_cfa_register %rbp
	subq	$16, %rsp
Ltmp4:
	.loc	21 337 27 prologue_end  ## Cacao/include/cocos2dx/cocoa/CCGeometry.h:337:27
	leaq	__ZN7cocos2dL10CCSizeZeroE(%rip), %rdi
	xorps	%xmm0, %xmm0
	movss	%xmm0, -4(%rbp)         ## 4-byte Spill
	movss	-4(%rbp), %xmm1         ## 4-byte Reload
                                        ## xmm1 = mem[0],zero,zero,zero
	callq	__ZN7cocos2d6CCSizeC1Eff
	addq	$16, %rsp
	popq	%rbp
	retq
Ltmp5:
Lfunc_end2:
	.cfi_endproc
                                        ## -- End function
	.p2align	4, 0x90         ## -- Begin function __cxx_global_var_init.3
___cxx_global_var_init.3:               ## @__cxx_global_var_init.3
Lfunc_begin3:
	.loc	21 340 0                ## Cacao/include/cocos2dx/cocoa/CCGeometry.h:340:0
	.cfi_startproc
## %bb.0:
	pushq	%rbp
	.cfi_def_cfa_offset 16
	.cfi_offset %rbp, -16
	movq	%rsp, %rbp
	.cfi_def_cfa_register %rbp
	subq	$16, %rsp
Ltmp6:
	.loc	21 340 27 prologue_end  ## Cacao/include/cocos2dx/cocoa/CCGeometry.h:340:27
	leaq	__ZN7cocos2dL10CCRectZeroE(%rip), %rdi
	xorps	%xmm0, %xmm0
	movss	%xmm0, -4(%rbp)         ## 4-byte Spill
	movss	-4(%rbp), %xmm1         ## 4-byte Reload
                                        ## xmm1 = mem[0],zero,zero,zero
	movss	-4(%rbp), %xmm2         ## 4-byte Reload
                                        ## xmm2 = mem[0],zero,zero,zero
	movss	-4(%rbp), %xmm3         ## 4-byte Reload
                                        ## xmm3 = mem[0],zero,zero,zero
	callq	__ZN7cocos2d6CCRectC1Effff
	addq	$16, %rsp
	popq	%rbp
	retq
Ltmp7:
Lfunc_end3:
	.cfi_endproc
                                        ## -- End function
	.p2align	4, 0x90         ## -- Begin function __cxx_global_var_init.4
___cxx_global_var_init.4:               ## @__cxx_global_var_init.4
Lfunc_begin4:
	.loc	22 54 0                 ## Cacao/include/cocos2dext/CocoStudio/GUI/System/../BaseClasses/../Layouts/UILayoutDefine.h:54:0
	.cfi_startproc
## %bb.0:
	pushq	%rbp
	.cfi_def_cfa_offset 16
	.cfi_offset %rbp, -16
	movq	%rsp, %rbp
	.cfi_def_cfa_register %rbp
Ltmp8:
	.loc	22 54 27 prologue_end   ## Cacao/include/cocos2dext/CocoStudio/GUI/System/../BaseClasses/../Layouts/UILayoutDefine.h:54:27
	leaq	__ZN7cocos2d2uiL10MarginZeroE(%rip), %rdi
	callq	__ZN7cocos2d2ui6MarginC1Ev
	popq	%rbp
	retq
Ltmp9:
Lfunc_end4:
	.cfi_endproc
                                        ## -- End function
	.section	__TEXT,__literal4,4byte_literals
	.p2align	2               ## -- Begin function _Z6injectv
LCPI5_0:
	.long	1116340224              ## float 69
	.section	__TEXT,__text,regular,pure_instructions
	.globl	__Z6injectv
	.p2align	4, 0x90
__Z6injectv:                            ## @_Z6injectv
Lfunc_begin5:
	.loc	25 16 0                 ## temp.cpp:16:0
	.cfi_startproc
	.cfi_personality 155, ___gxx_personality_v0
	.cfi_lsda 16, Lexception0
## %bb.0:
	pushq	%rbp
	.cfi_def_cfa_offset 16
	.cfi_offset %rbp, -16
	movq	%rsp, %rbp
	.cfi_def_cfa_register %rbp
	subq	$80, %rsp
	movl	$32, %edi
Ltmp16:
	.loc	25 17 6 prologue_end    ## temp.cpp:17:6
	callq	__Znwm
	movq	%rax, %rdi
	movq	%rax, %rcx
Ltmp10:
	.loc	25 17 10 is_stmt 0      ## temp.cpp:17:10
	leaq	L_.str(%rip), %rsi
	movq	%rdi, -32(%rbp)         ## 8-byte Spill
	movq	%rax, %rdi
	movq	%rcx, -40(%rbp)         ## 8-byte Spill
	callq	__ZN12ModContainerC1EPKc
Ltmp11:
	jmp	LBB5_1
LBB5_1:
	.loc	25 0 10                 ## temp.cpp:0:10
	movq	-40(%rbp), %rax         ## 8-byte Reload
	.loc	25 17 4                 ## temp.cpp:17:4
	movq	%rax, _m(%rip)
	movl	$512, %ecx              ## imm = 0x200
	.loc	25 18 11 is_stmt 1      ## temp.cpp:18:11
	movq	%rcx, %rdi
	movq	%rcx, -48(%rbp)         ## 8-byte Spill
	callq	__Znwm
	movq	%rax, %rcx
	movq	%rax, %rdi
	movq	%rdi, -56(%rbp)         ## 8-byte Spill
	.loc	25 18 15 is_stmt 0      ## temp.cpp:18:15
	movq	%rax, %rdi
	movq	-48(%rbp), %rsi         ## 8-byte Reload
	movq	%rax, -64(%rbp)         ## 8-byte Spill
	movq	%rcx, -72(%rbp)         ## 8-byte Spill
	callq	___bzero
Ltmp13:
	movq	-64(%rbp), %rdi         ## 8-byte Reload
	callq	__ZN12TestClassLOLC1Ev
Ltmp14:
	jmp	LBB5_2
LBB5_2:
	.loc	25 0 15                 ## temp.cpp:0:15
	movss	LCPI5_0(%rip), %xmm0    ## xmm0 = mem[0],zero,zero,zero
	movq	-56(%rbp), %rax         ## 8-byte Reload
	.loc	25 18 7                 ## temp.cpp:18:7
	movq	%rax, -24(%rbp)
	.loc	25 19 2 is_stmt 1       ## temp.cpp:19:2
	movq	-24(%rbp), %rcx
	.loc	25 19 9 is_stmt 0       ## temp.cpp:19:9
	movss	%xmm0, 504(%rcx)
	.loc	25 20 1 is_stmt 1       ## temp.cpp:20:1
	addq	$80, %rsp
	popq	%rbp
	retq
LBB5_3:
Ltmp12:
	movl	%edx, %ecx
	movq	%rax, -8(%rbp)
	movl	%ecx, -12(%rbp)
	movq	-32(%rbp), %rdi         ## 8-byte Reload
	.loc	25 17 6                 ## temp.cpp:17:6
	callq	__ZdlPv
	jmp	LBB5_5
LBB5_4:
Ltmp15:
	.loc	25 20 1                 ## temp.cpp:20:1
	movl	%edx, %ecx
	movq	%rax, -8(%rbp)
	movl	%ecx, -12(%rbp)
	movq	-72(%rbp), %rdi         ## 8-byte Reload
	.loc	25 18 11                ## temp.cpp:18:11
	callq	__ZdlPv
LBB5_5:
	.loc	25 17 6                 ## temp.cpp:17:6
	movq	-8(%rbp), %rdi
	callq	__Unwind_Resume
	ud2
Ltmp17:
Lfunc_end5:
	.cfi_endproc
	.section	__TEXT,__gcc_except_tab
	.p2align	2
GCC_except_table5:
Lexception0:
	.byte	255                     ## @LPStart Encoding = omit
	.byte	255                     ## @TType Encoding = omit
	.byte	1                       ## Call site Encoding = uleb128
	.uleb128 Lcst_end0-Lcst_begin0
Lcst_begin0:
	.uleb128 Lfunc_begin5-Lfunc_begin5 ## >> Call Site 1 <<
	.uleb128 Ltmp10-Lfunc_begin5    ##   Call between Lfunc_begin5 and Ltmp10
	.byte	0                       ##     has no landing pad
	.byte	0                       ##   On action: cleanup
	.uleb128 Ltmp10-Lfunc_begin5    ## >> Call Site 2 <<
	.uleb128 Ltmp11-Ltmp10          ##   Call between Ltmp10 and Ltmp11
	.uleb128 Ltmp12-Lfunc_begin5    ##     jumps to Ltmp12
	.byte	0                       ##   On action: cleanup
	.uleb128 Ltmp11-Lfunc_begin5    ## >> Call Site 3 <<
	.uleb128 Ltmp13-Ltmp11          ##   Call between Ltmp11 and Ltmp13
	.byte	0                       ##     has no landing pad
	.byte	0                       ##   On action: cleanup
	.uleb128 Ltmp13-Lfunc_begin5    ## >> Call Site 4 <<
	.uleb128 Ltmp14-Ltmp13          ##   Call between Ltmp13 and Ltmp14
	.uleb128 Ltmp15-Lfunc_begin5    ##     jumps to Ltmp15
	.byte	0                       ##   On action: cleanup
	.uleb128 Ltmp14-Lfunc_begin5    ## >> Call Site 5 <<
	.uleb128 Lfunc_end5-Ltmp14      ##   Call between Ltmp14 and Lfunc_end5
	.byte	0                       ##     has no landing pad
	.byte	0                       ##   On action: cleanup
Lcst_end0:
	.p2align	2
                                        ## -- End function
	.section	__TEXT,__text,regular,pure_instructions
	.globl	__ZN12TestClassLOLC1Ev  ## -- Begin function _ZN12TestClassLOLC1Ev
	.weak_def_can_be_hidden	__ZN12TestClassLOLC1Ev
	.p2align	4, 0x90
__ZN12TestClassLOLC1Ev:                 ## @_ZN12TestClassLOLC1Ev
Lfunc_begin6:
	.loc	25 10 0                 ## temp.cpp:10:0
	.cfi_startproc
## %bb.0:
	pushq	%rbp
	.cfi_def_cfa_offset 16
	.cfi_offset %rbp, -16
	movq	%rsp, %rbp
	.cfi_def_cfa_register %rbp
	subq	$16, %rsp
	movq	%rdi, -8(%rbp)
	movq	-8(%rbp), %rdi
Ltmp18:
	.loc	25 10 7 prologue_end    ## temp.cpp:10:7
	callq	__ZN12TestClassLOLC2Ev
	addq	$16, %rsp
	popq	%rbp
	retq
Ltmp19:
Lfunc_end6:
	.cfi_endproc
	.file	75 "/Users/jakrillis/projects/gdmods/cacaodump" "Cacao/include/cocos2dx/base_nodes/CCNode.h"
	.file	76 "/Users/jakrillis/projects/gdmods/cacaodump" "Cacao/include/cocos2dx/cocoa/CCAffineTransform.h"
	.file	77 "/Users/jakrillis/projects/gdmods/cacaodump" "Cacao/include/cocos2dx/CCCamera.h"
	.file	78 "/Users/jakrillis/projects/gdmods/cacaodump" "Cacao/include/cocos2dx/kazmath/include/kazmath/GL/../mat4.h"
	.file	79 "/Users/jakrillis/projects/gdmods/cacaodump" "Cacao/include/cocos2dx/effects/CCGrid.h"
	.file	80 "/Users/jakrillis/projects" "builds/macosx-sdks/MacOSX10.7.sdk/System/Library/Frameworks/OpenGL.framework/Headers/gl.h"
	.file	81 "/Users/jakrillis/projects/gdmods/cacaodump" "Cacao/include/cocos2dx/shaders/CCGLProgram.h"
	.file	82 "/Users/jakrillis/projects/gdmods/cacaodump" "Cacao/include/cocos2dx/effects/CCGrabber.h"
	.file	83 "/Users/jakrillis/projects/gdmods/cacaodump" "Cacao/include/cocos2dx/CCScheduler.h"
	.file	84 "/Users/jakrillis/projects/gdmods/cacaodump" "Cacao/include/cocos2dx/actions/CCActionManager.h"
	.file	85 "/Users/jakrillis/projects/gdmods/cacaodump" "Cacao/include/cocos2dx/actions/CCAction.h"
	.file	86 "/Users/jakrillis/projects/gdmods/cacaodump" "Cacao/include/cocos2dx/support/component/CCComponentContainer.h"
	.file	87 "/Users/jakrillis/projects/gdmods/cacaodump" "Cacao/include/cocos2dx/support/component/CCComponent.h"
	.file	88 "/Users/jakrillis/projects/gdmods/cacaodump" "Cacao/include/cocos2dx/touch_dispatcher/CCTouch.h"
	.file	89 "/Users/jakrillis/projects/gdmods/cacaodump" "Cacao/include/cocos2dx/touch_dispatcher/CCTouchDelegateProtocol.h"
	.file	90 "/Users/jakrillis/projects/gdmods/cacaodump" "Cacao/include/cocos2dx/platform/CCAccelerometerDelegate.h"
	.file	91 "/Users/jakrillis/projects/gdmods/cacaodump" "Cacao/include/cocos2dx/keypad_dispatcher/CCKeypadDelegate.h"
	.file	92 "/Users/jakrillis/projects/gdmods/cacaodump" "Cacao/include/cocos2dx/custom/Delegates/CCMouseDelegate.h"
	.file	93 "/Users/jakrillis/projects/gdmods/cacaodump" "Cacao/include/cocos2dx/include/CCProtocols.h"
                                        ## -- End function
	.globl	__ZN12TestClassLOLC2Ev  ## -- Begin function _ZN12TestClassLOLC2Ev
	.weak_def_can_be_hidden	__ZN12TestClassLOLC2Ev
	.p2align	4, 0x90
__ZN12TestClassLOLC2Ev:                 ## @_ZN12TestClassLOLC2Ev
Lfunc_begin7:
	.loc	25 10 0                 ## temp.cpp:10:0
	.cfi_startproc
## %bb.0:
	pushq	%rbp
	.cfi_def_cfa_offset 16
	.cfi_offset %rbp, -16
	movq	%rsp, %rbp
	.cfi_def_cfa_register %rbp
	subq	$16, %rsp
	movq	%rdi, -8(%rbp)
	movq	-8(%rbp), %rdi
Ltmp20:
	.loc	25 10 7 prologue_end    ## temp.cpp:10:7
	movq	%rdi, %rax
	movq	%rdi, -16(%rbp)         ## 8-byte Spill
	movq	%rax, %rdi
	callq	__ZN7cocos2d12CCLayerColorC2Ev
	movq	__ZTV12TestClassLOL@GOTPCREL(%rip), %rax
	movq	%rax, %rdi
	addq	$1632, %rdi             ## imm = 0x660
	movq	%rax, %rcx
	addq	$1504, %rcx             ## imm = 0x5E0
	movq	%rax, %rdx
	addq	$1464, %rdx             ## imm = 0x5B8
	movq	%rax, %rsi
	addq	$1432, %rsi             ## imm = 0x598
	movq	%rax, %r8
	addq	$1400, %r8              ## imm = 0x578
	movq	%rax, %r9
	addq	$1376, %r9              ## imm = 0x560
	movq	%rax, %r10
	addq	$1280, %r10             ## imm = 0x500
	addq	$16, %rax
	movq	-16(%rbp), %r11         ## 8-byte Reload
	movq	%rax, (%r11)
	movq	%r10, 288(%r11)
	movq	%r9, 296(%r11)
	movq	%r8, 304(%r11)
	movq	%rsi, 312(%r11)
	movq	%rdx, 320(%r11)
	movq	%rcx, 368(%r11)
	movq	%rdi, 392(%r11)
	addq	$16, %rsp
	popq	%rbp
	retq
Ltmp21:
Lfunc_end7:
	.cfi_endproc
                                        ## -- End function
	.globl	__ZN12TestClassLOLD1Ev  ## -- Begin function _ZN12TestClassLOLD1Ev
	.weak_def_can_be_hidden	__ZN12TestClassLOLD1Ev
	.p2align	4, 0x90
__ZN12TestClassLOLD1Ev:                 ## @_ZN12TestClassLOLD1Ev
Lfunc_begin8:
	.loc	25 10 0                 ## temp.cpp:10:0
	.cfi_startproc
## %bb.0:
	pushq	%rbp
	.cfi_def_cfa_offset 16
	.cfi_offset %rbp, -16
	movq	%rsp, %rbp
	.cfi_def_cfa_register %rbp
	subq	$16, %rsp
	movq	%rdi, -8(%rbp)
	movq	-8(%rbp), %rdi
Ltmp22:
	.loc	25 10 7 prologue_end    ## temp.cpp:10:7
	callq	__ZN12TestClassLOLD2Ev
	addq	$16, %rsp
	popq	%rbp
	retq
Ltmp23:
Lfunc_end8:
	.cfi_endproc
                                        ## -- End function
	.globl	__ZN12TestClassLOLD0Ev  ## -- Begin function _ZN12TestClassLOLD0Ev
	.weak_def_can_be_hidden	__ZN12TestClassLOLD0Ev
	.p2align	4, 0x90
__ZN12TestClassLOLD0Ev:                 ## @_ZN12TestClassLOLD0Ev
Lfunc_begin9:
	.loc	25 10 0                 ## temp.cpp:10:0
	.cfi_startproc
## %bb.0:
	pushq	%rbp
	.cfi_def_cfa_offset 16
	.cfi_offset %rbp, -16
	movq	%rsp, %rbp
	.cfi_def_cfa_register %rbp
	subq	$16, %rsp
	movq	%rdi, -8(%rbp)
	movq	-8(%rbp), %rdi
	movq	%rdi, -16(%rbp)         ## 8-byte Spill
Ltmp24:
	.loc	25 10 7 prologue_end    ## temp.cpp:10:7
	callq	__ZN12TestClassLOLD1Ev
	movq	-16(%rbp), %rdi         ## 8-byte Reload
	callq	__ZdlPv
	addq	$16, %rsp
	popq	%rbp
	retq
Ltmp25:
Lfunc_end9:
	.cfi_endproc
                                        ## -- End function
	.globl	__ZN7cocos2d11CCLayerRGBA19setOpacityModifyRGBEb ## -- Begin function _ZN7cocos2d11CCLayerRGBA19setOpacityModifyRGBEb
	.weak_def_can_be_hidden	__ZN7cocos2d11CCLayerRGBA19setOpacityModifyRGBEb
	.p2align	4, 0x90
__ZN7cocos2d11CCLayerRGBA19setOpacityModifyRGBEb: ## @_ZN7cocos2d11CCLayerRGBA19setOpacityModifyRGBEb
Lfunc_begin10:
	.loc	50 246 0                ## Cacao/include/cocos2dx/layers_scenes_transitions_nodes/CCLayer.h:246:0
	.cfi_startproc
## %bb.0:
	pushq	%rbp
	.cfi_def_cfa_offset 16
	.cfi_offset %rbp, -16
	movq	%rsp, %rbp
	.cfi_def_cfa_register %rbp
	movb	%sil, %al
	movq	%rdi, -8(%rbp)
	andb	$1, %al
	movb	%al, -9(%rbp)
Ltmp26:
	.loc	50 246 76 prologue_end  ## Cacao/include/cocos2dx/layers_scenes_transitions_nodes/CCLayer.h:246:76
	popq	%rbp
	retq
Ltmp27:
Lfunc_end10:
	.cfi_endproc
                                        ## -- End function
	.globl	__ZN7cocos2d11CCLayerRGBA18isOpacityModifyRGBEv ## -- Begin function _ZN7cocos2d11CCLayerRGBA18isOpacityModifyRGBEv
	.weak_def_can_be_hidden	__ZN7cocos2d11CCLayerRGBA18isOpacityModifyRGBEv
	.p2align	4, 0x90
__ZN7cocos2d11CCLayerRGBA18isOpacityModifyRGBEv: ## @_ZN7cocos2d11CCLayerRGBA18isOpacityModifyRGBEv
Lfunc_begin11:
	.loc	50 247 0                ## Cacao/include/cocos2dx/layers_scenes_transitions_nodes/CCLayer.h:247:0
	.cfi_startproc
## %bb.0:
	pushq	%rbp
	.cfi_def_cfa_offset 16
	.cfi_offset %rbp, -16
	movq	%rsp, %rbp
	.cfi_def_cfa_register %rbp
	xorl	%eax, %eax
	movb	%al, %cl
	movq	%rdi, -8(%rbp)
Ltmp28:
	.loc	50 247 41 prologue_end  ## Cacao/include/cocos2dx/layers_scenes_transitions_nodes/CCLayer.h:247:41
	andb	$1, %cl
	movzbl	%cl, %eax
	popq	%rbp
	retq
Ltmp29:
Lfunc_end11:
	.cfi_endproc
                                        ## -- End function
	.globl	__ZThn288_N12TestClassLOLD1Ev ## -- Begin function _ZThn288_N12TestClassLOLD1Ev
	.weak_def_can_be_hidden	__ZThn288_N12TestClassLOLD1Ev
	.p2align	4, 0x90
__ZThn288_N12TestClassLOLD1Ev:          ## @_ZThn288_N12TestClassLOLD1Ev
Lfunc_begin12:
	.loc	25 0 0                  ## temp.cpp:0:0
	.cfi_startproc
## %bb.0:
	pushq	%rbp
	.cfi_def_cfa_offset 16
	.cfi_offset %rbp, -16
	movq	%rsp, %rbp
	.cfi_def_cfa_register %rbp
	movq	%rdi, -8(%rbp)
Ltmp30:
	movq	-8(%rbp), %rdi
	addq	$-288, %rdi             ## imm = 0xFEE0
	popq	%rbp
	jmp	__ZN12TestClassLOLD1Ev  ## TAILCALL
Ltmp31:
Lfunc_end12:
	.cfi_endproc
                                        ## -- End function
	.globl	__ZThn288_N12TestClassLOLD0Ev ## -- Begin function _ZThn288_N12TestClassLOLD0Ev
	.weak_def_can_be_hidden	__ZThn288_N12TestClassLOLD0Ev
	.p2align	4, 0x90
__ZThn288_N12TestClassLOLD0Ev:          ## @_ZThn288_N12TestClassLOLD0Ev
Lfunc_begin13:
	.loc	25 0 0                  ## temp.cpp:0:0
	.cfi_startproc
## %bb.0:
	pushq	%rbp
	.cfi_def_cfa_offset 16
	.cfi_offset %rbp, -16
	movq	%rsp, %rbp
	.cfi_def_cfa_register %rbp
	movq	%rdi, -8(%rbp)
Ltmp32:
	movq	-8(%rbp), %rdi
	addq	$-288, %rdi             ## imm = 0xFEE0
	popq	%rbp
	jmp	__ZN12TestClassLOLD0Ev  ## TAILCALL
Ltmp33:
Lfunc_end13:
	.cfi_endproc
                                        ## -- End function
	.globl	__ZThn368_N7cocos2d11CCLayerRGBA19setOpacityModifyRGBEb ## -- Begin function _ZThn368_N7cocos2d11CCLayerRGBA19setOpacityModifyRGBEb
	.weak_def_can_be_hidden	__ZThn368_N7cocos2d11CCLayerRGBA19setOpacityModifyRGBEb
	.p2align	4, 0x90
__ZThn368_N7cocos2d11CCLayerRGBA19setOpacityModifyRGBEb: ## @_ZThn368_N7cocos2d11CCLayerRGBA19setOpacityModifyRGBEb
Lfunc_begin14:
	.loc	50 0 0                  ## Cacao/include/cocos2dx/layers_scenes_transitions_nodes/CCLayer.h:0:0
	.cfi_startproc
## %bb.0:
	pushq	%rbp
	.cfi_def_cfa_offset 16
	.cfi_offset %rbp, -16
	movq	%rsp, %rbp
	.cfi_def_cfa_register %rbp
	movb	%sil, %al
	movq	%rdi, -8(%rbp)
	andb	$1, %al
	movb	%al, -9(%rbp)
Ltmp34:
	movq	-8(%rbp), %rdi
	addq	$-368, %rdi             ## imm = 0xFE90
	movb	-9(%rbp), %al
	movzbl	%al, %esi
	andl	$1, %esi
	popq	%rbp
	jmp	__ZN7cocos2d11CCLayerRGBA19setOpacityModifyRGBEb ## TAILCALL
Ltmp35:
Lfunc_end14:
	.cfi_endproc
                                        ## -- End function
	.globl	__ZThn368_N7cocos2d11CCLayerRGBA18isOpacityModifyRGBEv ## -- Begin function _ZThn368_N7cocos2d11CCLayerRGBA18isOpacityModifyRGBEv
	.weak_def_can_be_hidden	__ZThn368_N7cocos2d11CCLayerRGBA18isOpacityModifyRGBEv
	.p2align	4, 0x90
__ZThn368_N7cocos2d11CCLayerRGBA18isOpacityModifyRGBEv: ## @_ZThn368_N7cocos2d11CCLayerRGBA18isOpacityModifyRGBEv
Lfunc_begin15:
	.loc	50 0 0                  ## Cacao/include/cocos2dx/layers_scenes_transitions_nodes/CCLayer.h:0:0
	.cfi_startproc
## %bb.0:
	pushq	%rbp
	.cfi_def_cfa_offset 16
	.cfi_offset %rbp, -16
	movq	%rsp, %rbp
	.cfi_def_cfa_register %rbp
	movq	%rdi, -8(%rbp)
Ltmp36:
	movq	-8(%rbp), %rdi
	addq	$-368, %rdi             ## imm = 0xFE90
	popq	%rbp
	jmp	__ZN7cocos2d11CCLayerRGBA18isOpacityModifyRGBEv ## TAILCALL
Ltmp37:
Lfunc_end15:
	.cfi_endproc
                                        ## -- End function
	.globl	__ZN12TestClassLOLD2Ev  ## -- Begin function _ZN12TestClassLOLD2Ev
	.weak_def_can_be_hidden	__ZN12TestClassLOLD2Ev
	.p2align	4, 0x90
__ZN12TestClassLOLD2Ev:                 ## @_ZN12TestClassLOLD2Ev
Lfunc_begin16:
	.loc	25 10 0                 ## temp.cpp:10:0
	.cfi_startproc
## %bb.0:
	pushq	%rbp
	.cfi_def_cfa_offset 16
	.cfi_offset %rbp, -16
	movq	%rsp, %rbp
	.cfi_def_cfa_register %rbp
	subq	$16, %rsp
	movq	%rdi, -8(%rbp)
	movq	-8(%rbp), %rdi
Ltmp38:
	.loc	25 10 7 prologue_end    ## temp.cpp:10:7
	callq	__ZN7cocos2d12CCLayerColorD2Ev
Ltmp39:
	.loc	25 10 7 is_stmt 0       ## temp.cpp:10:7
	addq	$16, %rsp
	popq	%rbp
	retq
Ltmp40:
Lfunc_end16:
	.cfi_endproc
                                        ## -- End function
	.section	__TEXT,__StaticInit,regular,pure_instructions
	.p2align	4, 0x90         ## -- Begin function _GLOBAL__sub_I_temp.cpp
__GLOBAL__sub_I_temp.cpp:               ## @_GLOBAL__sub_I_temp.cpp
Lfunc_begin17:
	.loc	25 0 0 is_stmt 1        ## temp.cpp:0:0
	.cfi_startproc
## %bb.0:
	pushq	%rbp
	.cfi_def_cfa_offset 16
	.cfi_offset %rbp, -16
	movq	%rsp, %rbp
	.cfi_def_cfa_register %rbp
Ltmp41:
	callq	___cxx_global_var_init
	callq	___cxx_global_var_init.1
	callq	___cxx_global_var_init.2
	callq	___cxx_global_var_init.3
	callq	___cxx_global_var_init.4
	popq	%rbp
	retq
Ltmp42:
Lfunc_end17:
	.cfi_endproc
                                        ## -- End function
.zerofill __DATA,__bss,__ZStL8__ioinit,1,0 ## @_ZStL8__ioinit
.zerofill __DATA,__bss,__ZN7cocos2dL11CCPointZeroE,8,2 ## @_ZN7cocos2dL11CCPointZeroE
.zerofill __DATA,__bss,__ZN7cocos2dL10CCSizeZeroE,8,2 ## @_ZN7cocos2dL10CCSizeZeroE
.zerofill __DATA,__bss,__ZN7cocos2dL10CCRectZeroE,16,2 ## @_ZN7cocos2dL10CCRectZeroE
.zerofill __DATA,__bss,__ZN7cocos2d2uiL10MarginZeroE,16,2 ## @_ZN7cocos2d2uiL10MarginZeroE
	.globl	_m                      ## @m
.zerofill __DATA,__common,_m,8,3
	.section	__TEXT,__cstring,cstring_literals
L_.str:                                 ## @.str
	.asciz	"amogus"

	.section	__DATA,__const
	.globl	__ZTV12TestClassLOL     ## @_ZTV12TestClassLOL
	.weak_def_can_be_hidden	__ZTV12TestClassLOL
	.p2align	3
__ZTV12TestClassLOL:
	.quad	0
	.quad	__ZTI12TestClassLOL
	.quad	__ZN7cocos2d9CCCopying12copyWithZoneEPNS_6CCZoneE
	.quad	__ZN12TestClassLOLD1Ev
	.quad	__ZN12TestClassLOLD0Ev
	.quad	__ZN7cocos2d8CCObject7isEqualEPKS0_
	.quad	__ZN7cocos2d8CCObject13acceptVisitorERNS_13CCDataVisitorE
	.quad	__ZN7cocos2d6CCNode6updateEf
	.quad	__ZN7cocos2d8CCObject15encodeWithCoderEP13DS_Dictionary
	.quad	__ZN7cocos2d8CCObject9canEncodeEv
	.quad	__ZNK7cocos2d8CCObject6getTagEv
	.quad	__ZN7cocos2d8CCObject6setTagEi
	.quad	__ZN7cocos2d12CCLayerColor4initEv
	.quad	__ZN7cocos2d6CCNode9setZOrderEi
	.quad	__ZN7cocos2d6CCNode10_setZOrderEi
	.quad	__ZN7cocos2d6CCNode9getZOrderEv
	.quad	__ZN7cocos2d6CCNode10setVertexZEf
	.quad	__ZN7cocos2d6CCNode10getVertexZEv
	.quad	__ZN7cocos2d6CCNode9setScaleXEf
	.quad	__ZN7cocos2d6CCNode9getScaleXEv
	.quad	__ZN7cocos2d6CCNode9setScaleYEf
	.quad	__ZN7cocos2d6CCNode9getScaleYEv
	.quad	__ZN7cocos2d6CCNode8setScaleEf
	.quad	__ZN7cocos2d6CCNode8getScaleEv
	.quad	__ZN7cocos2d6CCNode8setScaleEff
	.quad	__ZN7cocos2d6CCNode11setPositionERKNS_7CCPointE
	.quad	__ZN7cocos2d6CCNode11getPositionEv
	.quad	__ZN7cocos2d6CCNode11setPositionEff
	.quad	__ZN7cocos2d6CCNode11getPositionEPfS1_
	.quad	__ZN7cocos2d6CCNode12setPositionXEf
	.quad	__ZN7cocos2d6CCNode12getPositionXEv
	.quad	__ZN7cocos2d6CCNode12setPositionYEf
	.quad	__ZN7cocos2d6CCNode12getPositionYEv
	.quad	__ZN7cocos2d6CCNode8setSkewXEf
	.quad	__ZN7cocos2d6CCNode8getSkewXEv
	.quad	__ZN7cocos2d6CCNode8setSkewYEf
	.quad	__ZN7cocos2d6CCNode8getSkewYEv
	.quad	__ZN7cocos2d6CCNode14setAnchorPointERKNS_7CCPointE
	.quad	__ZN7cocos2d6CCNode14getAnchorPointEv
	.quad	__ZN7cocos2d6CCNode22getAnchorPointInPointsEv
	.quad	__ZN7cocos2d12CCLayerColor14setContentSizeERKNS_6CCSizeE
	.quad	__ZNK7cocos2d6CCNode14getContentSizeEv
	.quad	__ZN7cocos2d6CCNode20getScaledContentSizeEv
	.quad	__ZN7cocos2d6CCNode10setVisibleEb
	.quad	__ZN7cocos2d6CCNode9isVisibleEv
	.quad	__ZN7cocos2d6CCNode11setRotationEf
	.quad	__ZN7cocos2d6CCNode11getRotationEv
	.quad	__ZN7cocos2d6CCNode12setRotationXEf
	.quad	__ZN7cocos2d6CCNode12getRotationXEv
	.quad	__ZN7cocos2d6CCNode12setRotationYEf
	.quad	__ZN7cocos2d6CCNode12getRotationYEv
	.quad	__ZN7cocos2d6CCNode17setOrderOfArrivalEj
	.quad	__ZN7cocos2d6CCNode17getOrderOfArrivalEv
	.quad	__ZN7cocos2d6CCNode16setGLServerStateENS_15ccGLServerStateE
	.quad	__ZN7cocos2d6CCNode16getGLServerStateEv
	.quad	__ZN7cocos2d6CCNode28ignoreAnchorPointForPositionEb
	.quad	__ZN7cocos2d6CCNode30isIgnoreAnchorPointForPositionEv
	.quad	__ZN7cocos2d6CCNode8addChildEPS0_
	.quad	__ZN7cocos2d6CCNode8addChildEPS0_i
	.quad	__ZN7cocos2d6CCNode8addChildEPS0_ii
	.quad	__ZN7cocos2d6CCNode13getChildByTagEi
	.quad	__ZN7cocos2d6CCNode11getChildrenEv
	.quad	__ZNK7cocos2d6CCNode16getChildrenCountEv
	.quad	__ZN7cocos2d6CCNode9setParentEPS0_
	.quad	__ZN7cocos2d6CCNode9getParentEv
	.quad	__ZN7cocos2d6CCNode16removeFromParentEv
	.quad	__ZN7cocos2d6CCNode26removeFromParentAndCleanupEb
	.quad	__ZN7cocos2d6CCNode18removeMeAndCleanupEv
	.quad	__ZN7cocos2d6CCNode11removeChildEPS0_
	.quad	__ZN7cocos2d6CCNode11removeChildEPS0_b
	.quad	__ZN7cocos2d6CCNode16removeChildByTagEi
	.quad	__ZN7cocos2d6CCNode16removeChildByTagEib
	.quad	__ZN7cocos2d6CCNode17removeAllChildrenEv
	.quad	__ZN7cocos2d6CCNode28removeAllChildrenWithCleanupEb
	.quad	__ZN7cocos2d6CCNode12reorderChildEPS0_i
	.quad	__ZN7cocos2d6CCNode15sortAllChildrenEv
	.quad	__ZN7cocos2d6CCNode7getGridEv
	.quad	__ZN7cocos2d6CCNode7setGridEPNS_10CCGridBaseE
	.quad	__ZN7cocos2d6CCNode11getUserDataEv
	.quad	__ZN7cocos2d6CCNode11setUserDataEPv
	.quad	__ZN7cocos2d6CCNode13getUserObjectEv
	.quad	__ZN7cocos2d6CCNode13setUserObjectEPNS_8CCObjectE
	.quad	__ZN7cocos2d6CCNode16getShaderProgramEv
	.quad	__ZN7cocos2d6CCNode16setShaderProgramEPNS_11CCGLProgramE
	.quad	__ZN7cocos2d6CCNode9getCameraEv
	.quad	__ZN7cocos2d6CCNode9isRunningEv
	.quad	__ZN7cocos2d6CCNode21registerScriptHandlerEi
	.quad	__ZN7cocos2d6CCNode23unregisterScriptHandlerEv
	.quad	__ZN7cocos2d7CCLayer7onEnterEv
	.quad	__ZN7cocos2d7CCLayer26onEnterTransitionDidFinishEv
	.quad	__ZN7cocos2d7CCLayer6onExitEv
	.quad	__ZN7cocos2d6CCNode24onExitTransitionDidStartEv
	.quad	__ZN7cocos2d6CCNode7cleanupEv
	.quad	__ZN7cocos2d12CCLayerColor4drawEv
	.quad	__ZN7cocos2d6CCNode5visitEv
	.quad	__ZN7cocos2d6CCNode16setActionManagerEPNS_15CCActionManagerE
	.quad	__ZN7cocos2d6CCNode16getActionManagerEv
	.quad	__ZN7cocos2d6CCNode12setSchedulerEPNS_11CCSchedulerE
	.quad	__ZN7cocos2d6CCNode12getSchedulerEv
	.quad	__ZN7cocos2d6CCNode15updateTransformEv
	.quad	__ZN7cocos2d6CCNode21nodeToParentTransformEv
	.quad	__ZN7cocos2d6CCNode21parentToNodeTransformEv
	.quad	__ZN7cocos2d6CCNode20nodeToWorldTransformEv
	.quad	__ZN7cocos2d6CCNode20worldToNodeTransformEv
	.quad	__ZN7cocos2d6CCNode12addComponentEPNS_11CCComponentE
	.quad	__ZN7cocos2d6CCNode15removeComponentEPKc
	.quad	__ZN7cocos2d6CCNode15removeComponentEPNS_11CCComponentE
	.quad	__ZN7cocos2d6CCNode19removeAllComponentsEv
	.quad	__ZN7cocos2d6CCNode17updateTweenActionEfPKc
	.quad	__ZN7cocos2d7CCLayer12ccTouchBeganEPNS_7CCTouchEPNS_7CCEventE
	.quad	__ZN7cocos2d7CCLayer12ccTouchMovedEPNS_7CCTouchEPNS_7CCEventE
	.quad	__ZN7cocos2d7CCLayer12ccTouchEndedEPNS_7CCTouchEPNS_7CCEventE
	.quad	__ZN7cocos2d7CCLayer16ccTouchCancelledEPNS_7CCTouchEPNS_7CCEventE
	.quad	__ZN7cocos2d7CCLayer14ccTouchesBeganEPNS_5CCSetEPNS_7CCEventE
	.quad	__ZN7cocos2d7CCLayer14ccTouchesMovedEPNS_5CCSetEPNS_7CCEventE
	.quad	__ZN7cocos2d7CCLayer14ccTouchesEndedEPNS_5CCSetEPNS_7CCEventE
	.quad	__ZN7cocos2d7CCLayer18ccTouchesCancelledEPNS_5CCSetEPNS_7CCEventE
	.quad	__ZN7cocos2d7CCLayer13didAccelerateEPNS_14CCAccelerationE
	.quad	__ZN7cocos2d7CCLayer27registerWithTouchDispatcherEv
	.quad	__ZN7cocos2d7CCLayer26registerScriptTouchHandlerEibib
	.quad	__ZN7cocos2d7CCLayer28unregisterScriptTouchHandlerEv
	.quad	__ZN7cocos2d7CCLayer14isTouchEnabledEv
	.quad	__ZN7cocos2d7CCLayer15setTouchEnabledEb
	.quad	__ZN7cocos2d7CCLayer12setTouchModeENS_13ccTouchesModeE
	.quad	__ZN7cocos2d7CCLayer12getTouchModeEv
	.quad	__ZN7cocos2d7CCLayer16setTouchPriorityEi
	.quad	__ZN7cocos2d7CCLayer16getTouchPriorityEv
	.quad	__ZN7cocos2d7CCLayer22isAccelerometerEnabledEv
	.quad	__ZN7cocos2d7CCLayer23setAccelerometerEnabledEb
	.quad	__ZN7cocos2d7CCLayer24setAccelerometerIntervalEd
	.quad	__ZN7cocos2d7CCLayer15isKeypadEnabledEv
	.quad	__ZN7cocos2d7CCLayer16setKeypadEnabledEb
	.quad	__ZN7cocos2d7CCLayer17isKeyboardEnabledEv
	.quad	__ZN7cocos2d7CCLayer18setKeyboardEnabledEb
	.quad	__ZN7cocos2d7CCLayer14isMouseEnabledEv
	.quad	__ZN7cocos2d7CCLayer15setMouseEnabledEb
	.quad	__ZN7cocos2d7CCLayer14keyBackClickedEv
	.quad	__ZN7cocos2d7CCLayer14keyMenuClickedEv
	.quad	__ZN7cocos2d7CCLayer7keyDownENS_12enumKeyCodesE
	.quad	__ZN7cocos2d11CCLayerRGBA10getOpacityEv
	.quad	__ZN7cocos2d11CCLayerRGBA19getDisplayedOpacityEv
	.quad	__ZN7cocos2d12CCLayerColor10setOpacityEh
	.quad	__ZN7cocos2d11CCLayerRGBA22updateDisplayedOpacityEh
	.quad	__ZN7cocos2d11CCLayerRGBA23isCascadeOpacityEnabledEv
	.quad	__ZN7cocos2d11CCLayerRGBA24setCascadeOpacityEnabledEb
	.quad	__ZN7cocos2d11CCLayerRGBA8getColorEv
	.quad	__ZN7cocos2d11CCLayerRGBA17getDisplayedColorEv
	.quad	__ZN7cocos2d12CCLayerColor8setColorERKNS_10_ccColor3BE
	.quad	__ZN7cocos2d11CCLayerRGBA20updateDisplayedColorERKNS_10_ccColor3BE
	.quad	__ZN7cocos2d11CCLayerRGBA21isCascadeColorEnabledEv
	.quad	__ZN7cocos2d11CCLayerRGBA22setCascadeColorEnabledEb
	.quad	__ZN7cocos2d11CCLayerRGBA19setOpacityModifyRGBEb
	.quad	__ZN7cocos2d11CCLayerRGBA18isOpacityModifyRGBEv
	.quad	__ZN7cocos2d12CCLayerColor13initWithColorERKNS_10_ccColor4BEff
	.quad	__ZN7cocos2d12CCLayerColor13initWithColorERKNS_10_ccColor4BE
	.quad	__ZN7cocos2d12CCLayerColor12getBlendFuncEv
	.quad	__ZN7cocos2d12CCLayerColor12setBlendFuncENS_12_ccBlendFuncE
	.quad	__ZN7cocos2d12CCLayerColor11updateColorEv
	.quad	-288
	.quad	__ZTI12TestClassLOL
	.quad	__ZThn288_N12TestClassLOLD1Ev
	.quad	__ZThn288_N12TestClassLOLD0Ev
	.quad	__ZThn288_N7cocos2d7CCLayer12ccTouchBeganEPNS_7CCTouchEPNS_7CCEventE
	.quad	__ZThn288_N7cocos2d7CCLayer12ccTouchMovedEPNS_7CCTouchEPNS_7CCEventE
	.quad	__ZThn288_N7cocos2d7CCLayer12ccTouchEndedEPNS_7CCTouchEPNS_7CCEventE
	.quad	__ZThn288_N7cocos2d7CCLayer16ccTouchCancelledEPNS_7CCTouchEPNS_7CCEventE
	.quad	__ZThn288_N7cocos2d7CCLayer14ccTouchesBeganEPNS_5CCSetEPNS_7CCEventE
	.quad	__ZThn288_N7cocos2d7CCLayer14ccTouchesMovedEPNS_5CCSetEPNS_7CCEventE
	.quad	__ZThn288_N7cocos2d7CCLayer14ccTouchesEndedEPNS_5CCSetEPNS_7CCEventE
	.quad	__ZThn288_N7cocos2d7CCLayer18ccTouchesCancelledEPNS_5CCSetEPNS_7CCEventE
	.quad	-296
	.quad	__ZTI12TestClassLOL
	.quad	__ZThn296_N7cocos2d7CCLayer13didAccelerateEPNS_14CCAccelerationE
	.quad	-304
	.quad	__ZTI12TestClassLOL
	.quad	__ZThn304_N7cocos2d7CCLayer14keyBackClickedEv
	.quad	__ZThn304_N7cocos2d7CCLayer14keyMenuClickedEv
	.quad	-312
	.quad	__ZTI12TestClassLOL
	.quad	__ZThn312_N7cocos2d7CCLayer7keyDownENS_12enumKeyCodesE
	.quad	__ZN7cocos2d18CCKeyboardDelegate5keyUpENS_12enumKeyCodesE
	.quad	-320
	.quad	__ZTI12TestClassLOL
	.quad	__ZN7cocos2d15CCMouseDelegate12rightKeyDownEv
	.quad	__ZN7cocos2d15CCMouseDelegate10rightKeyUpEv
	.quad	__ZN7cocos2d15CCMouseDelegate11scrollWheelEff
	.quad	-368
	.quad	__ZTI12TestClassLOL
	.quad	__ZThn368_N7cocos2d12CCLayerColor8setColorERKNS_10_ccColor3BE
	.quad	__ZThn368_N7cocos2d11CCLayerRGBA8getColorEv
	.quad	__ZThn368_N7cocos2d11CCLayerRGBA17getDisplayedColorEv
	.quad	__ZThn368_N7cocos2d11CCLayerRGBA19getDisplayedOpacityEv
	.quad	__ZThn368_N7cocos2d11CCLayerRGBA10getOpacityEv
	.quad	__ZThn368_N7cocos2d12CCLayerColor10setOpacityEh
	.quad	__ZThn368_N7cocos2d11CCLayerRGBA19setOpacityModifyRGBEb
	.quad	__ZThn368_N7cocos2d11CCLayerRGBA18isOpacityModifyRGBEv
	.quad	__ZThn368_N7cocos2d11CCLayerRGBA21isCascadeColorEnabledEv
	.quad	__ZThn368_N7cocos2d11CCLayerRGBA22setCascadeColorEnabledEb
	.quad	__ZThn368_N7cocos2d11CCLayerRGBA20updateDisplayedColorERKNS_10_ccColor3BE
	.quad	__ZThn368_N7cocos2d11CCLayerRGBA23isCascadeOpacityEnabledEv
	.quad	__ZThn368_N7cocos2d11CCLayerRGBA24setCascadeOpacityEnabledEb
	.quad	__ZThn368_N7cocos2d11CCLayerRGBA22updateDisplayedOpacityEh
	.quad	-392
	.quad	__ZTI12TestClassLOL
	.quad	__ZThn392_N7cocos2d12CCLayerColor12setBlendFuncENS_12_ccBlendFuncE
	.quad	__ZThn392_N7cocos2d12CCLayerColor12getBlendFuncEv

	.section	__TEXT,__const
	.globl	__ZTS12TestClassLOL     ## @_ZTS12TestClassLOL
	.weak_definition	__ZTS12TestClassLOL
__ZTS12TestClassLOL:
	.asciz	"12TestClassLOL"

	.section	__DATA,__const
	.globl	__ZTI12TestClassLOL     ## @_ZTI12TestClassLOL
	.weak_definition	__ZTI12TestClassLOL
	.p2align	3
__ZTI12TestClassLOL:
	.quad	__ZTVN10__cxxabiv120__si_class_type_infoE+16
	.quad	__ZTS12TestClassLOL
	.quad	__ZTIN7cocos2d12CCLayerColorE

	.section	__DATA,__mod_init_func,mod_init_funcs
	.p2align	3
	.quad	__Z6injectv
	.quad	__GLOBAL__sub_I_temp.cpp
	.file	94 "<stdin>"