	.section	__TEXT,__text,regular,pure_instructions
	.macosx_version_min 10, 7
	.intel_syntax noprefix
	.file	1 "/Users/jakrillis/projects" "builds/macosx-sdks/MacOSX10.7.sdk/usr/include/c++/4.2.1/bits/ios_base.h"
	.file	2 "/Applications/Xcode.app/Contents/Developer/Toolchains/XcodeDefault.xctoolchain/usr/lib/clang/11.0.0/include" "stddef.h"
	.file	3 "/Users/jakrillis/projects" "builds/macosx-sdks/MacOSX10.7.sdk/usr/include/c++/4.2.1/bits/postypes.h"
	.file	4 "/Users/jakrillis/projects" "builds/macosx-sdks/MacOSX10.7.sdk/usr/include/c++/4.2.1/bits/atomic_word.h"
	.file	5 "/Users/jakrillis/projects" "builds/macosx-sdks/MacOSX10.7.sdk/usr/include/c++/4.2.1/bits/locale_classes.h"
	.file	6 "/Users/jakrillis/projects" "builds/macosx-sdks/MacOSX10.7.sdk/usr/include/c++/4.2.1/bits/c++locale.h"
	.file	7 "/Users/jakrillis/projects" "builds/macosx-sdks/MacOSX10.7.sdk/usr/include/sys/_types.h"
	.file	8 "/Users/jakrillis/projects" "builds/macosx-sdks/MacOSX10.7.sdk/usr/include/pthread.h"
	.file	9 "/Users/jakrillis/projects" "builds/macosx-sdks/MacOSX10.7.sdk/usr/include/c++/4.2.1/bits/gthr-default.h"
	.file	10 "/Users/jakrillis/projects" "builds/macosx-sdks/MacOSX10.7.sdk/usr/include/i386/_types.h"
	.file	11 "/Users/jakrillis/projects" "builds/macosx-sdks/MacOSX10.7.sdk/usr/include/unistd.h"
	.file	12 "/Users/jakrillis/projects" "builds/macosx-sdks/MacOSX10.7.sdk/usr/include/c++/4.2.1/ext/new_allocator.h"
	.file	13 "/Users/jakrillis/projects" "builds/macosx-sdks/MacOSX10.7.sdk/usr/include/c++/4.2.1/bits/allocator.h"
	.file	14 "/Users/jakrillis/projects" "builds/macosx-sdks/MacOSX10.7.sdk/usr/include/c++/4.2.1/bits/basic_string.h"
	.file	15 "/Users/jakrillis/projects" "builds/macosx-sdks/MacOSX10.7.sdk/usr/include/c++/4.2.1/bits/stl_iterator.h"
	.file	16 "/Users/jakrillis/projects" "builds/macosx-sdks/MacOSX10.7.sdk/usr/include/c++/4.2.1/bits/stl_iterator_base_types.h"
	.file	17 "/Users/jakrillis/projects" "builds/macosx-sdks/MacOSX10.7.sdk/usr/include/c++/4.2.1/bits/char_traits.h"
	.file	18 "/Users/jakrillis/projects" "builds/macosx-sdks/MacOSX10.7.sdk/usr/include/c++/4.2.1/bits/basic_string.tcc"
	.file	19 "/Users/jakrillis/projects" "builds/macosx-sdks/MacOSX10.7.sdk/usr/include/c++/4.2.1/bits/stringfwd.h"
	.file	20 "/Users/jakrillis/projects" "builds/macosx-sdks/MacOSX10.7.sdk/usr/include/c++/4.2.1/iostream"
	.file	21 "/Users/jakrillis/projects/gdmods/cps" "Cacao/include/cocos2dx/cocoa/CCGeometry.h"
	.file	22 "/Users/jakrillis/projects/gdmods/cps" "Cacao/include/cocos2dext/CocoStudio/GUI/System/../BaseClasses/../Layouts/UILayoutDefine.h"
	.file	23 "/Users/jakrillis/projects/gdmods/cps" "Cacao/include/GDML/GDML.hpp"
	.file	24 "/Users/jakrillis/projects" "builds/macosx-sdks/MacOSX10.7.sdk/usr/include/c++/4.2.1/bits/stl_vector.h"
	.file	25 "/Users/jakrillis/projects/gdmods/cps" "main.cpp"
	.file	26 "/Users/jakrillis/projects/gdmods/cps" "Cacao/include/cocos2dx/cocoa/CCObject.h"
	.file	27 "/Users/jakrillis/projects/gdmods/cps" "Cacao/include/cocos2dx/cocoa/CCZone.h"
	.file	28 "/Users/jakrillis/projects/gdmods/cps" "Cacao/include/cocos2dx/cocoa/CCDataVisitor.h"
	.file	29 "/Users/jakrillis/projects/gdmods/cps" "Cacao/include/cocos2dx/cocoa/CCBool.h"
	.file	30 "/Users/jakrillis/projects/gdmods/cps" "Cacao/include/cocos2dx/cocoa/CCInteger.h"
	.file	31 "/Users/jakrillis/projects/gdmods/cps" "Cacao/include/cocos2dx/cocoa/CCFloat.h"
	.file	32 "/Users/jakrillis/projects/gdmods/cps" "Cacao/include/cocos2dx/cocoa/CCDouble.h"
	.file	33 "/Users/jakrillis/projects/gdmods/cps" "Cacao/include/cocos2dx/cocoa/CCString.h"
	.file	34 "/Users/jakrillis/projects/gdmods/cps" "Cacao/include/cocos2dx/support/data_support/ccCArray.h"
	.file	35 "/Users/jakrillis/projects/gdmods/cps" "Cacao/include/cocos2dx/cocoa/CCArray.h"
	.file	36 "/Users/jakrillis/projects" "builds/macosx-sdks/MacOSX10.7.sdk/usr/include/c++/4.2.1/bits/stl_tree.h"
	.file	37 "/Users/jakrillis/projects" "builds/macosx-sdks/MacOSX10.7.sdk/usr/include/c++/4.2.1/bits/stl_function.h"
	.file	38 "/Users/jakrillis/projects" "builds/macosx-sdks/MacOSX10.7.sdk/usr/include/c++/4.2.1/bits/stl_set.h"
	.file	39 "/Users/jakrillis/projects/gdmods/cps" "Cacao/include/cocos2dx/cocoa/CCSet.h"
	.file	40 "/Users/jakrillis/projects/gdmods/cps" "Cacao/include/cocos2dx/cocoa/CCDictionary.h"
	.file	41 "/Users/jakrillis/projects/gdmods/cps" "Cacao/include/cocos2dx/support/data_support/uthash.h"
	.file	42 "/Users/jakrillis/projects" "builds/macosx-sdks/MacOSX10.7.sdk/usr/include/stdint.h"
	.file	43 "/Users/jakrillis/projects/gdmods/cps" "Cacao/include/cocos2dx/textures/CCTexture2D.h"
	.file	44 "/Users/jakrillis/projects/gdmods/cps" "Cacao/include/cocos2dx/platform/CCImage.h"
	.file	45 "/Users/jakrillis/projects/gdmods/cps" "Cacao/include/cocos2dx/include/ccTypes.h"
	.file	46 "/Users/jakrillis/projects/gdmods/cps" "Cacao/include/cocos2dx/CCDirector.h"
	.file	47 "/Users/jakrillis/projects/gdmods/cps" "Cacao/include/cocos2dx/shaders/ccGLStateCache.h"
	.file	48 "/Users/jakrillis/projects/gdmods/cps" "Cacao/include/cocos2dx/script_support/CCScriptSupport.h"
	.file	49 "/Users/jakrillis/projects" "builds/macosx-sdks/MacOSX10.7.sdk/usr/include/_locale.h"
	.file	50 "/Users/jakrillis/projects" "builds/macosx-sdks/MacOSX10.7.sdk/usr/include/c++/4.2.1/clocale"
	.file	51 "/Users/jakrillis/projects" "builds/macosx-sdks/MacOSX10.7.sdk/usr/include/locale.h"
	.file	52 "/Users/jakrillis/projects" "builds/macosx-sdks/MacOSX10.7.sdk/usr/include/c++/4.2.1/cstddef"
	.file	53 "/Users/jakrillis/projects" "builds/macosx-sdks/MacOSX10.7.sdk/usr/include/string.h"
	.file	54 "/Users/jakrillis/projects" "builds/macosx-sdks/MacOSX10.7.sdk/usr/include/c++/4.2.1/cstring"
	.file	55 "/Users/jakrillis/projects" "builds/macosx-sdks/MacOSX10.7.sdk/usr/include/stdio.h"
	.file	56 "/Users/jakrillis/projects" "builds/macosx-sdks/MacOSX10.7.sdk/usr/include/c++/4.2.1/cstdio"
	.file	57 "/Users/jakrillis/projects" "builds/macosx-sdks/MacOSX10.7.sdk/usr/include/c++/4.2.1/cstdarg"
	.file	58 "/Users/jakrillis/projects" "builds/macosx-sdks/MacOSX10.7.sdk/usr/include/ctype.h"
	.file	59 "/Users/jakrillis/projects" "builds/macosx-sdks/MacOSX10.7.sdk/usr/include/c++/4.2.1/cctype"
	.file	60 "/Users/jakrillis/projects" "builds/macosx-sdks/MacOSX10.7.sdk/usr/include/time.h"
	.file	61 "/Users/jakrillis/projects" "builds/macosx-sdks/MacOSX10.7.sdk/usr/include/c++/4.2.1/ctime"
	.file	62 "/Users/jakrillis/projects" "builds/macosx-sdks/MacOSX10.7.sdk/usr/include/sys/select.h"
	.file	63 "/Users/jakrillis/projects" "builds/macosx-sdks/MacOSX10.7.sdk/usr/include/wchar.h"
	.file	64 "/Users/jakrillis/projects" "builds/macosx-sdks/MacOSX10.7.sdk/usr/include/c++/4.2.1/cwchar"
	.file	65 "/Users/jakrillis/projects" "builds/macosx-sdks/MacOSX10.7.sdk/usr/include/runetype.h"
	.file	66 "/Users/jakrillis/projects" "builds/macosx-sdks/MacOSX10.7.sdk/usr/include/stdlib.h"
	.file	67 "/Users/jakrillis/projects" "builds/macosx-sdks/MacOSX10.7.sdk/usr/include/c++/4.2.1/cstdlib"
	.file	68 "/Users/jakrillis/projects" "builds/macosx-sdks/MacOSX10.7.sdk/usr/include/c++/4.2.1/debug/debug.h"
	.file	69 "/Users/jakrillis/projects" "builds/macosx-sdks/MacOSX10.7.sdk/usr/include/c++/4.2.1/cwctype"
	.file	70 "/Users/jakrillis/projects" "builds/macosx-sdks/MacOSX10.7.sdk/usr/include/_types.h"
	.file	71 "/Users/jakrillis/projects" "builds/macosx-sdks/MacOSX10.7.sdk/usr/include/_wctype.h"
	.file	72 "/Users/jakrillis/projects" "builds/macosx-sdks/MacOSX10.7.sdk/usr/include/wctype.h"
	.file	73 "/Users/jakrillis/projects/gdmods/cps" "Cacao/include/cocos2dext/CocoStudio/GUI/System/../BaseClasses/../Layouts/../BaseClasses/UIWidget.h"
	.section	__TEXT,__StaticInit,regular,pure_instructions
	.p2align	4, 0x90         ## -- Begin function __cxx_global_var_init
___cxx_global_var_init:                 ## @__cxx_global_var_init
Lfunc_begin0:
	.loc	20 77 0                 ## builds/macosx-sdks/MacOSX10.7.sdk/usr/include/c++/4.2.1/iostream:77:0
	.cfi_startproc
## %bb.0:
	push	rbp
	.cfi_def_cfa_offset 16
	.cfi_offset rbp, -16
	mov	rbp, rsp
	.cfi_def_cfa_register rbp
	sub	rsp, 16
Ltmp0:
	.loc	20 77 25 prologue_end   ## builds/macosx-sdks/MacOSX10.7.sdk/usr/include/c++/4.2.1/iostream:77:25
	lea	rdi, [rip + __ZStL8__ioinit]
	call	__ZNSt8ios_base4InitC1Ev
	mov	rdi, qword ptr [rip + __ZNSt8ios_base4InitD1Ev@GOTPCREL]
	lea	rsi, [rip + __ZStL8__ioinit]
	lea	rdx, [rip + ___dso_handle]
	call	___cxa_atexit
	mov	dword ptr [rbp - 4], eax ## 4-byte Spill
	add	rsp, 16
	pop	rbp
	ret
Ltmp1:
Lfunc_end0:
	.cfi_endproc
                                        ## -- End function
	.p2align	4, 0x90         ## -- Begin function __cxx_global_var_init.1
___cxx_global_var_init.1:               ## @__cxx_global_var_init.1
Lfunc_begin1:
	.loc	21 334 0                ## Cacao/include/cocos2dx/cocoa/CCGeometry.h:334:0
	.cfi_startproc
## %bb.0:
	push	rbp
	.cfi_def_cfa_offset 16
	.cfi_offset rbp, -16
	mov	rbp, rsp
	.cfi_def_cfa_register rbp
	sub	rsp, 16
Ltmp2:
	.loc	21 334 29 prologue_end  ## Cacao/include/cocos2dx/cocoa/CCGeometry.h:334:29
	lea	rdi, [rip + __ZN7cocos2dL11CCPointZeroE]
	xorps	xmm0, xmm0
	movss	dword ptr [rbp - 4], xmm0 ## 4-byte Spill
	movss	xmm1, dword ptr [rbp - 4] ## 4-byte Reload
                                        ## xmm1 = mem[0],zero,zero,zero
	call	__ZN7cocos2d7CCPointC1Eff
	add	rsp, 16
	pop	rbp
	ret
Ltmp3:
Lfunc_end1:
	.cfi_endproc
                                        ## -- End function
	.p2align	4, 0x90         ## -- Begin function __cxx_global_var_init.2
___cxx_global_var_init.2:               ## @__cxx_global_var_init.2
Lfunc_begin2:
	.loc	21 337 0                ## Cacao/include/cocos2dx/cocoa/CCGeometry.h:337:0
	.cfi_startproc
## %bb.0:
	push	rbp
	.cfi_def_cfa_offset 16
	.cfi_offset rbp, -16
	mov	rbp, rsp
	.cfi_def_cfa_register rbp
	sub	rsp, 16
Ltmp4:
	.loc	21 337 27 prologue_end  ## Cacao/include/cocos2dx/cocoa/CCGeometry.h:337:27
	lea	rdi, [rip + __ZN7cocos2dL10CCSizeZeroE]
	xorps	xmm0, xmm0
	movss	dword ptr [rbp - 4], xmm0 ## 4-byte Spill
	movss	xmm1, dword ptr [rbp - 4] ## 4-byte Reload
                                        ## xmm1 = mem[0],zero,zero,zero
	call	__ZN7cocos2d6CCSizeC1Eff
	add	rsp, 16
	pop	rbp
	ret
Ltmp5:
Lfunc_end2:
	.cfi_endproc
                                        ## -- End function
	.p2align	4, 0x90         ## -- Begin function __cxx_global_var_init.3
___cxx_global_var_init.3:               ## @__cxx_global_var_init.3
Lfunc_begin3:
	.loc	21 340 0                ## Cacao/include/cocos2dx/cocoa/CCGeometry.h:340:0
	.cfi_startproc
## %bb.0:
	push	rbp
	.cfi_def_cfa_offset 16
	.cfi_offset rbp, -16
	mov	rbp, rsp
	.cfi_def_cfa_register rbp
	sub	rsp, 16
Ltmp6:
	.loc	21 340 27 prologue_end  ## Cacao/include/cocos2dx/cocoa/CCGeometry.h:340:27
	lea	rdi, [rip + __ZN7cocos2dL10CCRectZeroE]
	xorps	xmm0, xmm0
	movss	dword ptr [rbp - 4], xmm0 ## 4-byte Spill
	movss	xmm1, dword ptr [rbp - 4] ## 4-byte Reload
                                        ## xmm1 = mem[0],zero,zero,zero
	movss	xmm2, dword ptr [rbp - 4] ## 4-byte Reload
                                        ## xmm2 = mem[0],zero,zero,zero
	movss	xmm3, dword ptr [rbp - 4] ## 4-byte Reload
                                        ## xmm3 = mem[0],zero,zero,zero
	call	__ZN7cocos2d6CCRectC1Effff
	add	rsp, 16
	pop	rbp
	ret
Ltmp7:
Lfunc_end3:
	.cfi_endproc
                                        ## -- End function
	.p2align	4, 0x90         ## -- Begin function __cxx_global_var_init.4
___cxx_global_var_init.4:               ## @__cxx_global_var_init.4
Lfunc_begin4:
	.loc	22 54 0                 ## Cacao/include/cocos2dext/CocoStudio/GUI/System/../BaseClasses/../Layouts/UILayoutDefine.h:54:0
	.cfi_startproc
## %bb.0:
	push	rbp
	.cfi_def_cfa_offset 16
	.cfi_offset rbp, -16
	mov	rbp, rsp
	.cfi_def_cfa_register rbp
Ltmp8:
	.loc	22 54 27 prologue_end   ## Cacao/include/cocos2dext/CocoStudio/GUI/System/../BaseClasses/../Layouts/UILayoutDefine.h:54:27
	lea	rdi, [rip + __ZN7cocos2d2uiL10MarginZeroE]
	call	__ZN7cocos2d2ui6MarginC1Ev
	pop	rbp
	ret
Ltmp9:
Lfunc_end4:
	.cfi_endproc
                                        ## -- End function
	.section	__TEXT,__text,regular,pure_instructions
	.globl	__Z6injectv             ## -- Begin function _Z6injectv
	.p2align	4, 0x90
__Z6injectv:                            ## @_Z6injectv
Lfunc_begin5:
	.loc	25 27 0                 ## main.cpp:27:0
	.cfi_startproc
	.cfi_personality 155, ___gxx_personality_v0
	.cfi_lsda 16, Lexception0
## %bb.0:
	push	rbp
	.cfi_def_cfa_offset 16
	.cfi_offset rbp, -16
	mov	rbp, rsp
	.cfi_def_cfa_register rbp
	sub	rsp, 80
	mov	edi, 32
Ltmp16:
	.loc	25 28 6 prologue_end    ## main.cpp:28:6
	call	__Znwm
	mov	rdi, rax
	mov	rcx, rax
Ltmp10:
	.loc	25 28 10 is_stmt 0      ## main.cpp:28:10
	lea	rsi, [rip + L_.str]
	mov	qword ptr [rbp - 32], rdi ## 8-byte Spill
	mov	rdi, rax
	mov	qword ptr [rbp - 40], rcx ## 8-byte Spill
	call	__ZN12ModContainerC1EPKc
Ltmp11:
	jmp	LBB5_1
LBB5_1:
	.loc	25 0 10                 ## main.cpp:0:10
	mov	rax, qword ptr [rbp - 40] ## 8-byte Reload
	.loc	25 28 4                 ## main.cpp:28:4
	mov	qword ptr [rip + _m], rax
	mov	ecx, 592
	.loc	25 29 11 is_stmt 1      ## main.cpp:29:11
	mov	rdi, rcx
	mov	qword ptr [rbp - 48], rcx ## 8-byte Spill
	call	__Znwm
	mov	rcx, rax
	mov	rdi, rax
	mov	qword ptr [rbp - 56], rdi ## 8-byte Spill
	.loc	25 29 15 is_stmt 0      ## main.cpp:29:15
	mov	rdi, rax
	mov	rsi, qword ptr [rbp - 48] ## 8-byte Reload
	mov	qword ptr [rbp - 64], rax ## 8-byte Spill
	mov	qword ptr [rbp - 72], rcx ## 8-byte Spill
	call	___bzero
Ltmp13:
	mov	rdi, qword ptr [rbp - 64] ## 8-byte Reload
	call	__ZN12CCSpritePlusC1Ev
Ltmp14:
	jmp	LBB5_2
LBB5_2:
	.loc	25 0 15                 ## main.cpp:0:15
	mov	rax, qword ptr [rbp - 56] ## 8-byte Reload
	.loc	25 29 7                 ## main.cpp:29:7
	mov	qword ptr [rbp - 24], rax
	.loc	25 31 1 is_stmt 1       ## main.cpp:31:1
	add	rsp, 80
	pop	rbp
	ret
LBB5_3:
Ltmp12:
	mov	ecx, edx
	mov	qword ptr [rbp - 8], rax
	mov	dword ptr [rbp - 12], ecx
	mov	rdi, qword ptr [rbp - 32] ## 8-byte Reload
	.loc	25 28 6                 ## main.cpp:28:6
	call	__ZdlPv
	jmp	LBB5_5
LBB5_4:
Ltmp15:
	.loc	25 31 1                 ## main.cpp:31:1
	mov	ecx, edx
	mov	qword ptr [rbp - 8], rax
	mov	dword ptr [rbp - 12], ecx
	mov	rdi, qword ptr [rbp - 72] ## 8-byte Reload
	.loc	25 29 11                ## main.cpp:29:11
	call	__ZdlPv
LBB5_5:
	.loc	25 28 6                 ## main.cpp:28:6
	mov	rdi, qword ptr [rbp - 8]
	call	__Unwind_Resume
	ud2
Ltmp17:
Lfunc_end5:
	.cfi_endproc
	.section	__TEXT,__gcc_except_tab
	.p2align	2
GCC_except_table5:
Lexception0:
	.byte	255                     ## @LPStart Encoding = omit
	.byte	255                     ## @TType Encoding = omit
	.byte	1                       ## Call site Encoding = uleb128
	.uleb128 Lcst_end0-Lcst_begin0
Lcst_begin0:
	.uleb128 Lfunc_begin5-Lfunc_begin5 ## >> Call Site 1 <<
	.uleb128 Ltmp10-Lfunc_begin5    ##   Call between Lfunc_begin5 and Ltmp10
	.byte	0                       ##     has no landing pad
	.byte	0                       ##   On action: cleanup
	.uleb128 Ltmp10-Lfunc_begin5    ## >> Call Site 2 <<
	.uleb128 Ltmp11-Ltmp10          ##   Call between Ltmp10 and Ltmp11
	.uleb128 Ltmp12-Lfunc_begin5    ##     jumps to Ltmp12
	.byte	0                       ##   On action: cleanup
	.uleb128 Ltmp11-Lfunc_begin5    ## >> Call Site 3 <<
	.uleb128 Ltmp13-Ltmp11          ##   Call between Ltmp11 and Ltmp13
	.byte	0                       ##     has no landing pad
	.byte	0                       ##   On action: cleanup
	.uleb128 Ltmp13-Lfunc_begin5    ## >> Call Site 4 <<
	.uleb128 Ltmp14-Ltmp13          ##   Call between Ltmp13 and Ltmp14
	.uleb128 Ltmp15-Lfunc_begin5    ##     jumps to Ltmp15
	.byte	0                       ##   On action: cleanup
	.uleb128 Ltmp14-Lfunc_begin5    ## >> Call Site 5 <<
	.uleb128 Lfunc_end5-Ltmp14      ##   Call between Ltmp14 and Lfunc_end5
	.byte	0                       ##     has no landing pad
	.byte	0                       ##   On action: cleanup
Lcst_end0:
	.p2align	2
                                        ## -- End function
	.section	__TEXT,__text,regular,pure_instructions
	.globl	__ZN12CCSpritePlusC1Ev  ## -- Begin function _ZN12CCSpritePlusC1Ev
	.weak_def_can_be_hidden	__ZN12CCSpritePlusC1Ev
	.p2align	4, 0x90
__ZN12CCSpritePlusC1Ev:                 ## @_ZN12CCSpritePlusC1Ev
Lfunc_begin6:
	.loc	25 9 0                  ## main.cpp:9:0
	.cfi_startproc
## %bb.0:
	push	rbp
	.cfi_def_cfa_offset 16
	.cfi_offset rbp, -16
	mov	rbp, rsp
	.cfi_def_cfa_register rbp
	sub	rsp, 16
	mov	qword ptr [rbp - 8], rdi
	mov	rdi, qword ptr [rbp - 8]
Ltmp18:
	.loc	25 9 7 prologue_end     ## main.cpp:9:7
	call	__ZN12CCSpritePlusC2Ev
	add	rsp, 16
	pop	rbp
	ret
Ltmp19:
Lfunc_end6:
	.cfi_endproc
	.file	74 "/Users/jakrillis/projects/gdmods/cps" "Cacao/include/cocos2dx/base_nodes/CCNode.h"
	.file	75 "/Users/jakrillis/projects/gdmods/cps" "Cacao/include/cocos2dx/cocoa/CCAffineTransform.h"
	.file	76 "/Users/jakrillis/projects/gdmods/cps" "Cacao/include/cocos2dx/CCCamera.h"
	.file	77 "/Users/jakrillis/projects/gdmods/cps" "Cacao/include/cocos2dx/kazmath/include/kazmath/GL/../mat4.h"
	.file	78 "/Users/jakrillis/projects/gdmods/cps" "Cacao/include/cocos2dx/effects/CCGrid.h"
	.file	79 "/Users/jakrillis/projects" "builds/macosx-sdks/MacOSX10.7.sdk/System/Library/Frameworks/OpenGL.framework/Headers/gl.h"
	.file	80 "/Users/jakrillis/projects/gdmods/cps" "Cacao/include/cocos2dx/shaders/CCGLProgram.h"
	.file	81 "/Users/jakrillis/projects/gdmods/cps" "Cacao/include/cocos2dx/effects/CCGrabber.h"
	.file	82 "/Users/jakrillis/projects/gdmods/cps" "Cacao/include/cocos2dx/CCScheduler.h"
	.file	83 "/Users/jakrillis/projects/gdmods/cps" "Cacao/include/cocos2dx/actions/CCActionManager.h"
	.file	84 "/Users/jakrillis/projects/gdmods/cps" "Cacao/include/cocos2dx/actions/CCAction.h"
	.file	85 "/Users/jakrillis/projects/gdmods/cps" "Cacao/include/cocos2dx/support/component/CCComponentContainer.h"
	.file	86 "/Users/jakrillis/projects/gdmods/cps" "Cacao/include/cocos2dx/support/component/CCComponent.h"
	.file	87 "/Users/jakrillis/projects/gdmods/cps" "Cacao/include/cocos2dx/touch_dispatcher/CCTouch.h"
	.file	88 "/Users/jakrillis/projects/gdmods/cps" "Cacao/include/cocos2dx/include/CCProtocols.h"
	.file	89 "/Users/jakrillis/projects/gdmods/cps" "Cacao/include/cocos2dx/textures/CCTextureAtlas.h"
	.file	90 "/Users/jakrillis/projects/gdmods/cps" "Cacao/include/cocos2dx/sprite_nodes/CCSprite.h"
	.file	91 "/Users/jakrillis/projects/gdmods/cps" "Cacao/include/cocos2dx/sprite_nodes/CCSpriteBatchNode.h"
	.file	92 "/Users/jakrillis/projects/gdmods/cps" "Cacao/include/cocos2dx/sprite_nodes/CCSpriteFrame.h"
                                        ## -- End function
	.globl	__ZN12CCSpritePlusC2Ev  ## -- Begin function _ZN12CCSpritePlusC2Ev
	.weak_def_can_be_hidden	__ZN12CCSpritePlusC2Ev
	.p2align	4, 0x90
__ZN12CCSpritePlusC2Ev:                 ## @_ZN12CCSpritePlusC2Ev
Lfunc_begin7:
	.loc	25 9 0                  ## main.cpp:9:0
	.cfi_startproc
## %bb.0:
	push	rbp
	.cfi_def_cfa_offset 16
	.cfi_offset rbp, -16
	mov	rbp, rsp
	.cfi_def_cfa_register rbp
	sub	rsp, 16
	mov	qword ptr [rbp - 8], rdi
	mov	rdi, qword ptr [rbp - 8]
Ltmp20:
	.loc	25 9 7 prologue_end     ## main.cpp:9:7
	mov	rax, rdi
	mov	qword ptr [rbp - 16], rdi ## 8-byte Spill
	mov	rdi, rax
	call	__ZN7cocos2d8CCSpriteC2Ev
	mov	rax, qword ptr [rip + __ZTV12CCSpritePlus@GOTPCREL]
	mov	rdi, rax
	add	rdi, 1376
	mov	rcx, rax
	add	rcx, 1248
	add	rax, 16
	mov	rdx, qword ptr [rbp - 16] ## 8-byte Reload
	mov	qword ptr [rdx], rax
	mov	qword ptr [rdx + 288], rcx
	mov	qword ptr [rdx + 312], rdi
	add	rsp, 16
	pop	rbp
	ret
Ltmp21:
Lfunc_end7:
	.cfi_endproc
                                        ## -- End function
	.section	__TEXT,__StaticInit,regular,pure_instructions
	.p2align	4, 0x90         ## -- Begin function _GLOBAL__sub_I_main.cpp
__GLOBAL__sub_I_main.cpp:               ## @_GLOBAL__sub_I_main.cpp
Lfunc_begin8:
	.loc	25 0 0                  ## main.cpp:0:0
	.cfi_startproc
## %bb.0:
	push	rbp
	.cfi_def_cfa_offset 16
	.cfi_offset rbp, -16
	mov	rbp, rsp
	.cfi_def_cfa_register rbp
Ltmp22:
	call	___cxx_global_var_init
	call	___cxx_global_var_init.1
	call	___cxx_global_var_init.2
	call	___cxx_global_var_init.3
	call	___cxx_global_var_init.4
	pop	rbp
	ret
Ltmp23:
Lfunc_end8:
	.cfi_endproc
                                        ## -- End function
.zerofill __DATA,__bss,__ZStL8__ioinit,1,0 ## @_ZStL8__ioinit
.zerofill __DATA,__bss,__ZN7cocos2dL11CCPointZeroE,8,2 ## @_ZN7cocos2dL11CCPointZeroE
.zerofill __DATA,__bss,__ZN7cocos2dL10CCSizeZeroE,8,2 ## @_ZN7cocos2dL10CCSizeZeroE
.zerofill __DATA,__bss,__ZN7cocos2dL10CCRectZeroE,16,2 ## @_ZN7cocos2dL10CCRectZeroE
.zerofill __DATA,__bss,__ZN7cocos2d2uiL10MarginZeroE,16,2 ## @_ZN7cocos2d2uiL10MarginZeroE
	.globl	_m                      ## @m
.zerofill __DATA,__common,_m,8,3
	.section	__TEXT,__cstring,cstring_literals
L_.str:                                 ## @.str
	.asciz	"Cps thingy"

	.section	__DATA,__mod_init_func,mod_init_funcs
	.p2align	3
	.quad	__Z6injectv
	.quad	__GLOBAL__sub_I_main.cpp
	.file	93 "<stdin>"